; Function Attrs: mustprogress nounwind uwtable
define dso_local void @_ZN4node9inspector5Agent23ReportUncaughtExceptionEN2v85LocalINS2_5ValueEEENS3_INS2_7MessageEEE(ptr nocapture noundef nonnull align 8 dereferenceable(186) %this, ptr %error.coerce, ptr %message.coerce) local_unnamed_addr #3 align 2 {
entry:
  %io_.i = getelementptr inbounds i8, ptr %this, i64 24
  %0 = load ptr, ptr %io_.i, align 8
  %cmp.i.i.i.not = icmp eq ptr %0, null
  br i1 %cmp.i.i.i.not, label %return, label %if.end

if.end:                                           ; preds = %entry
  %client_ = getelementptr inbounds i8, ptr %this, i64 8
  %1 = load ptr, ptr %client_, align 8
  tail call void @_ZN4node9inspector19NodeInspectorClient23ReportUncaughtExceptionEN2v85LocalINS2_5ValueEEENS3_INS2_7MessageEEE(ptr noundef nonnull align 8 dereferenceable(184) %1, ptr %error.coerce, ptr %message.coerce)
  tail call void @_ZN4node9inspector5Agent17WaitForDisconnectEv(ptr noundef nonnull align 8 dereferenceable(186) %this)
  br label %return

return:                                           ; preds = %entry, %if.end
  ret void
}